target datalayout = "e-m:e-p270:32:32-p271:32:32-p272:64:64-i64:64-i128:128-f80:128-n8:16:32:64-S128"
target triple = "x86_64-pc-linux-gnu"

%"class.icu_77::Hashtable" = type { ptr, %struct.UHashtable }
%struct.UHashtable = type { ptr, ptr, ptr, ptr, ptr, ptr, i32, i32, i32, i32, float, float, i8, i8 }
%"class.icu_77::UVector" = type { %"class.icu_77::UObject", i32, i32, ptr, ptr, ptr }
%"class.icu_77::UObject" = type { ptr }
%"class.icu_77::UnicodeString" = type { %"class.icu_77::Replaceable", %"union.icu_77::UnicodeString::StackBufferOrFields" }
%"class.icu_77::Replaceable" = type { %"class.icu_77::UObject" }
%"union.icu_77::UnicodeString::StackBufferOrFields" = type { %struct.anon.0, [32 x i8] }
%struct.anon.0 = type { i16, i32, i32, ptr }
%"class.icu_77::TransliteratorParser" = type <{ [8 x i8], %"class.icu_77::UVector", %"class.icu_77::UVector", ptr, ptr, i32, %struct.UParseError, [4 x i8], ptr, %"class.icu_77::UVector", %"class.icu_77::Hashtable", %"class.icu_77::UnicodeString", %"class.icu_77::UVector", i16, i16, [4 x i8], %"class.icu_77::UnicodeString", i16, [6 x i8] }>
%struct.UParseError = type { i32, i32, [16 x i16], [16 x i16] }
%"class.icu_77::Char16Ptr" = type { ptr }

; Function Attrs: inlinehint mustprogress nounwind uwtable
define linkonce_odr noundef ptr @_ZNK6icu_779Char16Ptr3getEv(ptr noundef nonnull align 8 dereferenceable(8) %0) #2 comdat align 2 {
  %2 = alloca ptr, align 8
  store ptr %0, ptr %2, align 8, !tbaa !147
  %3 = load ptr, ptr %2, align 8
  %4 = getelementptr inbounds nuw %"class.icu_77::Char16Ptr", ptr %3, i32 0, i32 0
  %5 = load ptr, ptr %4, align 8, !tbaa !149
  ret ptr %5
}

; Function Attrs: inlinehint mustprogress nounwind uwtable
define linkonce_odr noundef i32 @_ZNK6icu_7713UnicodeString14getShortLengthEv(ptr noundef nonnull align 8 dereferenceable(64) %0) #2 comdat align 2 {
  %2 = alloca ptr, align 8
  store ptr %0, ptr %2, align 8, !tbaa !40
  %3 = load ptr, ptr %2, align 8
  %4 = getelementptr inbounds nuw %"class.icu_77::UnicodeString", ptr %3, i32 0, i32 1
  %5 = getelementptr inbounds nuw %struct.anon.0, ptr %4, i32 0, i32 0
  %6 = load i16, ptr %5, align 8, !tbaa !68
  %7 = sext i16 %6 to i32
  %8 = ashr i32 %7, 5
  ret i32 %8
}

; Function Attrs: inlinehint mustprogress nounwind uwtable
define linkonce_odr noundef signext i8 @_ZNK6icu_7713UnicodeString14hasShortLengthEv(ptr noundef nonnull align 8 dereferenceable(64) %0) #2 comdat align 2 {
  %2 = alloca ptr, align 8
  store ptr %0, ptr %2, align 8, !tbaa !40
  %3 = load ptr, ptr %2, align 8
  %4 = getelementptr inbounds nuw %"class.icu_77::UnicodeString", ptr %3, i32 0, i32 1
  %5 = getelementptr inbounds nuw %struct.anon.0, ptr %4, i32 0, i32 0
  %6 = load i16, ptr %5, align 8, !tbaa !68
  %7 = sext i16 %6 to i32
  %8 = icmp sge i32 %7, 0
  %9 = zext i1 %8 to i8
  ret i8 %9
}

; Function Attrs: inlinehint mustprogress uwtable
define linkonce_odr noundef ptr @_ZNK6icu_779Char16PtrcvPDsEv(ptr noundef nonnull align 8 dereferenceable(8) %0) #3 comdat align 2 {
  %2 = alloca ptr, align 8
  store ptr %0, ptr %2, align 8, !tbaa !147
  %3 = load ptr, ptr %2, align 8
  %4 = call noundef ptr @_ZNK6icu_779Char16Ptr3getEv(ptr noundef nonnull align 8 dereferenceable(8) %3)
  ret ptr %4
}

; Function Attrs: inlinehint mustprogress uwtable
define linkonce_odr noundef i32 @_ZNK6icu_7713UnicodeString6lengthEv(ptr noundef nonnull align 8 dereferenceable(64) %0) #3 comdat align 2 {
  %2 = alloca ptr, align 8
  store ptr %0, ptr %2, align 8, !tbaa !40
  %3 = load ptr, ptr %2, align 8
  %4 = call noundef signext i8 @_ZNK6icu_7713UnicodeString14hasShortLengthEv(ptr noundef nonnull align 8 dereferenceable(64) %3)
  %5 = icmp ne i8 %4, 0
  br i1 %5, label %6, label %8

6:                                                ; preds = %1
  %7 = call noundef i32 @_ZNK6icu_7713UnicodeString14getShortLengthEv(ptr noundef nonnull align 8 dereferenceable(64) %3)
  br label %12

8:                                                ; preds = %1
  %9 = getelementptr inbounds nuw %"class.icu_77::UnicodeString", ptr %3, i32 0, i32 1
  %10 = getelementptr inbounds nuw %struct.anon.0, ptr %9, i32 0, i32 1
  %11 = load i32, ptr %10, align 4, !tbaa !68
  br label %12

12:                                               ; preds = %8, %6
  %13 = phi i32 [ %7, %6 ], [ %11, %8 ]
  ret i32 %13
}

; Function Attrs: inlinehint mustprogress nounwind uwtable
define linkonce_odr void @_ZN6icu_779Char16PtrD2Ev(ptr noundef nonnull align 8 dereferenceable(8) %0) unnamed_addr #2 comdat align 2 {
  %2 = alloca ptr, align 8
  store ptr %0, ptr %2, align 8, !tbaa !147
  %3 = load ptr, ptr %2, align 8
  %4 = getelementptr inbounds nuw %"class.icu_77::Char16Ptr", ptr %3, i32 0, i32 0
  %5 = load ptr, ptr %4, align 8, !tbaa !149
  call void asm sideeffect "", "rm,~{memory},~{dirflag},~{fpsr},~{flags}"(ptr %5) #11, !srcloc !151
  ret void
}

; Function Attrs: inlinehint mustprogress uwtable
define linkonce_odr void @_ZNK6icu_7713UnicodeString7extractEiiNS_9Char16PtrEi(ptr noundef nonnull align 8 dereferenceable(64) %0, i32 noundef %1, i32 noundef %2, ptr noundef %3, i32 noundef %4) #3 comdat align 2 {
  %6 = alloca ptr, align 8
  %7 = alloca i32, align 4
  %8 = alloca i32, align 4
  %9 = alloca ptr, align 8
  %10 = alloca i32, align 4
  store ptr %0, ptr %6, align 8, !tbaa !40
  store i32 %1, ptr %7, align 4, !tbaa !14
  store i32 %2, ptr %8, align 4, !tbaa !14
  store ptr %3, ptr %9, align 8, !tbaa !147
  store i32 %4, ptr %10, align 4, !tbaa !14
  %11 = load ptr, ptr %6, align 8
  %12 = load i32, ptr %7, align 4, !tbaa !14
  %13 = load i32, ptr %8, align 4, !tbaa !14
  %14 = call noundef ptr @_ZNK6icu_779Char16PtrcvPDsEv(ptr noundef nonnull align 8 dereferenceable(8) %3)
  %15 = load i32, ptr %10, align 4, !tbaa !14
  call void @_ZNK6icu_7713UnicodeString9doExtractEiiPDsi(ptr noundef nonnull align 8 dereferenceable(64) %11, i32 noundef %12, i32 noundef %13, ptr noundef %14, i32 noundef %15)
  ret void
}

; Function Attrs: inlinehint mustprogress nounwind uwtable
define linkonce_odr void @_ZN6icu_779Char16PtrC2EPDs(ptr noundef nonnull align 8 dereferenceable(8) %0, ptr noundef %1) unnamed_addr #2 comdat align 2 {
  %3 = alloca ptr, align 8
  %4 = alloca ptr, align 8
  store ptr %0, ptr %3, align 8, !tbaa !147
  store ptr %1, ptr %4, align 8, !tbaa !104
  %5 = load ptr, ptr %3, align 8
  %6 = getelementptr inbounds nuw %"class.icu_77::Char16Ptr", ptr %5, i32 0, i32 0
  %7 = load ptr, ptr %4, align 8, !tbaa !104
  store ptr %7, ptr %6, align 8, !tbaa !149
  ret void
}

; Function Attrs: mustprogress uwtable
define noundef i32 @_ZN6icu_7720TransliteratorParser11syntaxErrorE10UErrorCodeRKNS_13UnicodeStringEiRS1_(ptr noundef nonnull align 8 dereferenceable(498) %0, i32 noundef %1, ptr noundef nonnull align 8 dereferenceable(64) %2, i32 noundef %3, ptr noundef nonnull align 4 dereferenceable(4) %4) #1 align 2 personality ptr @__gxx_personality_v0 {
  %6 = alloca ptr, align 8
  %7 = alloca i32, align 4
  %8 = alloca ptr, align 8
  %9 = alloca i32, align 4
  %10 = alloca ptr, align 8
  %11 = alloca i32, align 4
  %12 = alloca i32, align 4
  %13 = alloca i32, align 4
  %14 = alloca %"class.icu_77::Char16Ptr", align 8
  %15 = alloca ptr, align 8
  %16 = alloca i32, align 4
  %17 = alloca %"class.icu_77::Char16Ptr", align 8
  store ptr %0, ptr %6, align 8, !tbaa !71
  store i32 %1, ptr %7, align 4, !tbaa !15
  store ptr %2, ptr %8, align 8, !tbaa !40
  store i32 %3, ptr %9, align 4, !tbaa !14
  store ptr %4, ptr %10, align 8, !tbaa !22
  %18 = load ptr, ptr %6, align 8
  %19 = load i32, ptr %9, align 4, !tbaa !14
  %20 = getelementptr inbounds nuw %"class.icu_77::TransliteratorParser", ptr %18, i32 0, i32 6
  %21 = getelementptr inbounds nuw %struct.UParseError, ptr %20, i32 0, i32 1
  store i32 %19, ptr %21, align 4, !tbaa !125
  %22 = getelementptr inbounds nuw %"class.icu_77::TransliteratorParser", ptr %18, i32 0, i32 6
  %23 = getelementptr inbounds nuw %struct.UParseError, ptr %22, i32 0, i32 0
  store i32 0, ptr %23, align 4, !tbaa !126
  call void @llvm.lifetime.start.p0(i64 4, ptr %11) #11
  store i32 15, ptr %11, align 4, !tbaa !14
  call void @llvm.lifetime.start.p0(i64 4, ptr %12) #11
  %24 = load i32, ptr %9, align 4, !tbaa !14
  %25 = sub nsw i32 %24, 15
  %26 = call i32 @uprv_max_77(i32 noundef %25, i32 noundef 0)
  store i32 %26, ptr %12, align 4, !tbaa !14
  call void @llvm.lifetime.start.p0(i64 4, ptr %13) #11
  %27 = load i32, ptr %9, align 4, !tbaa !14
  store i32 %27, ptr %13, align 4, !tbaa !14
  %28 = load ptr, ptr %8, align 8, !tbaa !40
  %29 = load i32, ptr %12, align 4, !tbaa !14
  %30 = load i32, ptr %13, align 4, !tbaa !14
  %31 = load i32, ptr %12, align 4, !tbaa !14
  %32 = sub nsw i32 %30, %31
  %33 = getelementptr inbounds nuw %"class.icu_77::TransliteratorParser", ptr %18, i32 0, i32 6
  %34 = getelementptr inbounds nuw %struct.UParseError, ptr %33, i32 0, i32 2
  %35 = getelementptr inbounds [16 x i16], ptr %34, i64 0, i64 0
  call void @_ZN6icu_779Char16PtrC2EPDs(ptr noundef nonnull align 8 dereferenceable(8) %14, ptr noundef %35)
  invoke void @_ZNK6icu_7713UnicodeString7extractEiiNS_9Char16PtrEi(ptr noundef nonnull align 8 dereferenceable(64) %28, i32 noundef %29, i32 noundef %32, ptr noundef %14, i32 noundef 0)
          to label %36 unwind label %69

36:                                               ; preds = %5
  call void @_ZN6icu_779Char16PtrD2Ev(ptr noundef nonnull align 8 dereferenceable(8) %14) #11
  %37 = getelementptr inbounds nuw %"class.icu_77::TransliteratorParser", ptr %18, i32 0, i32 6
  %38 = getelementptr inbounds nuw %struct.UParseError, ptr %37, i32 0, i32 2
  %39 = load i32, ptr %13, align 4, !tbaa !14
  %40 = load i32, ptr %12, align 4, !tbaa !14
  %41 = sub nsw i32 %39, %40
  %42 = sext i32 %41 to i64
  %43 = getelementptr inbounds [16 x i16], ptr %38, i64 0, i64 %42
  store i16 0, ptr %43, align 2, !tbaa !63
  %44 = load i32, ptr %9, align 4, !tbaa !14
  store i32 %44, ptr %12, align 4, !tbaa !14
  %45 = load i32, ptr %9, align 4, !tbaa !14
  %46 = add nsw i32 %45, 15
  %47 = load ptr, ptr %8, align 8, !tbaa !40
  %48 = call noundef i32 @_ZNK6icu_7713UnicodeString6lengthEv(ptr noundef nonnull align 8 dereferenceable(64) %47)
  %49 = call i32 @uprv_min_77(i32 noundef %46, i32 noundef %48)
  store i32 %49, ptr %13, align 4, !tbaa !14
  %50 = load ptr, ptr %8, align 8, !tbaa !40
  %51 = load i32, ptr %12, align 4, !tbaa !14
  %52 = load i32, ptr %13, align 4, !tbaa !14
  %53 = load i32, ptr %12, align 4, !tbaa !14
  %54 = sub nsw i32 %52, %53
  %55 = getelementptr inbounds nuw %"class.icu_77::TransliteratorParser", ptr %18, i32 0, i32 6
  %56 = getelementptr inbounds nuw %struct.UParseError, ptr %55, i32 0, i32 3
  %57 = getelementptr inbounds [16 x i16], ptr %56, i64 0, i64 0
  call void @_ZN6icu_779Char16PtrC2EPDs(ptr noundef nonnull align 8 dereferenceable(8) %17, ptr noundef %57)
  invoke void @_ZNK6icu_7713UnicodeString7extractEiiNS_9Char16PtrEi(ptr noundef nonnull align 8 dereferenceable(64) %50, i32 noundef %51, i32 noundef %54, ptr noundef %17, i32 noundef 0)
          to label %58 unwind label %73

58:                                               ; preds = %36
  call void @_ZN6icu_779Char16PtrD2Ev(ptr noundef nonnull align 8 dereferenceable(8) %17) #11
  %59 = getelementptr inbounds nuw %"class.icu_77::TransliteratorParser", ptr %18, i32 0, i32 6
  %60 = getelementptr inbounds nuw %struct.UParseError, ptr %59, i32 0, i32 3
  %61 = load i32, ptr %13, align 4, !tbaa !14
  %62 = load i32, ptr %12, align 4, !tbaa !14
  %63 = sub nsw i32 %61, %62
  %64 = sext i32 %63 to i64
  %65 = getelementptr inbounds [16 x i16], ptr %60, i64 0, i64 %64
  store i16 0, ptr %65, align 2, !tbaa !63
  %66 = load i32, ptr %7, align 4, !tbaa !15
  %67 = load ptr, ptr %10, align 8, !tbaa !22
  store i32 %66, ptr %67, align 4, !tbaa !15
  %68 = load i32, ptr %9, align 4, !tbaa !14
  call void @llvm.lifetime.end.p0(i64 4, ptr %13) #11
  call void @llvm.lifetime.end.p0(i64 4, ptr %12) #11
  call void @llvm.lifetime.end.p0(i64 4, ptr %11) #11
  ret i32 %68

69:                                               ; preds = %5
  %70 = landingpad { ptr, i32 }
          cleanup
  %71 = extractvalue { ptr, i32 } %70, 0
  store ptr %71, ptr %15, align 8
  %72 = extractvalue { ptr, i32 } %70, 1
  store i32 %72, ptr %16, align 4
  call void @_ZN6icu_779Char16PtrD2Ev(ptr noundef nonnull align 8 dereferenceable(8) %14) #11
  br label %77

73:                                               ; preds = %36
  %74 = landingpad { ptr, i32 }
          cleanup
  %75 = extractvalue { ptr, i32 } %74, 0
  store ptr %75, ptr %15, align 8
  %76 = extractvalue { ptr, i32 } %74, 1
  store i32 %76, ptr %16, align 4
  call void @_ZN6icu_779Char16PtrD2Ev(ptr noundef nonnull align 8 dereferenceable(8) %17) #11
  br label %77

77:                                               ; preds = %73, %69
  call void @llvm.lifetime.end.p0(i64 4, ptr %13) #11
  call void @llvm.lifetime.end.p0(i64 4, ptr %12) #11
  call void @llvm.lifetime.end.p0(i64 4, ptr %11) #11
  br label %78

78:                                               ; preds = %77
  %79 = load ptr, ptr %15, align 8
  %80 = load i32, ptr %16, align 4
  %81 = insertvalue { ptr, i32 } poison, ptr %79, 0
  %82 = insertvalue { ptr, i32 } %81, i32 %80, 1
  resume { ptr, i32 } %82
}