; Function Attrs: mustprogress uwtable
define noundef i32 @_ZN6icu_7720TransliteratorParser11syntaxErrorE10UErrorCodeRKNS_13UnicodeStringEiRS1_(ptr noundef nonnull align 8 dereferenceable(498) initializes((108, 116)) %0, i32 noundef %1, ptr noundef nonnull align 8 dereferenceable(64) %2, i32 noundef returned %3, ptr noundef nonnull writeonly align 4 captures(none) dereferenceable(4) %4) local_unnamed_addr #1 align 2 personality ptr @__gxx_personality_v0 {
  %6 = getelementptr inbounds nuw i8, ptr %0, i64 108
  %7 = getelementptr inbounds nuw i8, ptr %0, i64 112
  store i32 %3, ptr %7, align 8, !tbaa !86
  store i32 0, ptr %6, align 4, !tbaa !87
  %8 = add nsw i32 %3, -15
  %9 = tail call i32 @uprv_max_77(i32 noundef %8, i32 noundef 0)
  %10 = sub nsw i32 %3, %9
  %11 = getelementptr inbounds nuw i8, ptr %0, i64 116
  invoke void @_ZNK6icu_7713UnicodeString9doExtractEiiPDsi(ptr noundef nonnull align 8 dereferenceable(64) %2, i32 noundef %9, i32 noundef %10, ptr noundef nonnull %11, i32 noundef 0)
          to label %_ZNK6icu_7713UnicodeString7extractEiiNS_9Char16PtrEi.exit unwind label %28

_ZNK6icu_7713UnicodeString7extractEiiNS_9Char16PtrEi.exit: ; preds = %5
  tail call void asm sideeffect "", "rm,~{memory},~{dirflag},~{fpsr},~{flags}"(ptr nonnull %11) #18, !srcloc !101
  %12 = sext i32 %10 to i64
  %13 = getelementptr inbounds [16 x i16], ptr %11, i64 0, i64 %12
  store i16 0, ptr %13, align 2, !tbaa !45
  %14 = add nsw i32 %3, 15
  %15 = getelementptr inbounds nuw i8, ptr %2, i64 8
  %16 = load i16, ptr %15, align 8, !tbaa !44
  %17 = icmp slt i16 %16, 0
  %18 = ashr i16 %16, 5
  %19 = sext i16 %18 to i32
  %20 = getelementptr inbounds nuw i8, ptr %2, i64 12
  %21 = load i32, ptr %20, align 4
  %22 = select i1 %17, i32 %21, i32 %19
  %23 = tail call i32 @uprv_min_77(i32 noundef %14, i32 noundef %22)
  %24 = sub nsw i32 %23, %3
  %25 = getelementptr inbounds nuw i8, ptr %0, i64 148
  invoke void @_ZNK6icu_7713UnicodeString9doExtractEiiPDsi(ptr noundef nonnull align 8 dereferenceable(64) %2, i32 noundef %3, i32 noundef %24, ptr noundef nonnull %25, i32 noundef 0)
          to label %_ZNK6icu_7713UnicodeString7extractEiiNS_9Char16PtrEi.exit25 unwind label %30

_ZNK6icu_7713UnicodeString7extractEiiNS_9Char16PtrEi.exit25: ; preds = %_ZNK6icu_7713UnicodeString7extractEiiNS_9Char16PtrEi.exit
  tail call void asm sideeffect "", "rm,~{memory},~{dirflag},~{fpsr},~{flags}"(ptr nonnull %25) #18, !srcloc !101
  %26 = sext i32 %24 to i64
  %27 = getelementptr inbounds [16 x i16], ptr %25, i64 0, i64 %26
  store i16 0, ptr %27, align 2, !tbaa !45
  store i32 %1, ptr %4, align 4, !tbaa !13
  ret i32 %3

28:                                               ; preds = %5
  %29 = landingpad { ptr, i32 }
          cleanup
  tail call void asm sideeffect "", "rm,~{memory},~{dirflag},~{fpsr},~{flags}"(ptr nonnull %11) #18, !srcloc !101
  br label %32

30:                                               ; preds = %_ZNK6icu_7713UnicodeString7extractEiiNS_9Char16PtrEi.exit
  %31 = landingpad { ptr, i32 }
          cleanup
  tail call void asm sideeffect "", "rm,~{memory},~{dirflag},~{fpsr},~{flags}"(ptr nonnull %25) #18, !srcloc !101
  br label %32

32:                                               ; preds = %30, %28
  %.pn = phi { ptr, i32 } [ %31, %30 ], [ %29, %28 ]
  resume { ptr, i32 } %.pn
}